EXPORTS
	_ZN6QZXing10setDecoderENS_13DecoderFormatE @ 1 NONAME
	_ZN6QZXing11decodeImageE6QImage @ 2 NONAME
	_ZN6QZXing11qt_metacallEN11QMetaObject4CallEiPPv @ 3 NONAME
	_ZN6QZXing11qt_metacastEPKc @ 4 NONAME
	_ZN6QZXing15decodingStartedEv @ 5 NONAME
	_ZN6QZXing16decodingFinishedEb @ 6 NONAME
	_ZN6QZXing16staticMetaObjectE @ 7 NONAME DATA 16
	_ZN6QZXing19getStaticMetaObjectEv @ 8 NONAME
	_ZN6QZXing8tagFoundE7QString @ 9 NONAME
	_ZN6QZXingC1EP7QObject @ 10 NONAME
	_ZN6QZXingC2EP7QObject @ 11 NONAME
	_ZNK6QZXing10metaObjectEv @ 12 NONAME
	_ZTI18CameraImageWrapper @ 13 NONAME
	_ZTI6QZXing @ 14 NONAME
	_ZTIN5zxing11ResultPointE @ 15 NONAME
	_ZTIN5zxing12BinaryBitmapE @ 16 NONAME
	_ZTIN5zxing15FormatExceptionE @ 17 NONAME
	_ZTIN5zxing15HybridBinarizerE @ 18 NONAME
	_ZTIN5zxing15LuminanceSourceE @ 19 NONAME
	_ZTIN5zxing15ReaderExceptionE @ 20 NONAME
	_ZTIN5zxing17MultiFormatReaderE @ 21 NONAME
	_ZTIN5zxing19ResultPointCallbackE @ 22 NONAME
	_ZTIN5zxing20ReedSolomonExceptionE @ 23 NONAME
	_ZTIN5zxing24GlobalHistogramBinarizerE @ 24 NONAME
	_ZTIN5zxing24GreyscaleLuminanceSourceE @ 25 NONAME
	_ZTIN5zxing24IllegalArgumentExceptionE @ 26 NONAME
	_ZTIN5zxing31GreyscaleRotatedLuminanceSourceE @ 27 NONAME
	_ZTIN5zxing4oned10EAN8ReaderE @ 28 NONAME
	_ZTIN5zxing4oned10OneDReaderE @ 29 NONAME
	_ZTIN5zxing4oned10UPCAReaderE @ 30 NONAME
	_ZTIN5zxing4oned10UPCEReaderE @ 31 NONAME
	_ZTIN5zxing4oned11EAN13ReaderE @ 32 NONAME
	_ZTIN5zxing4oned12Code39ReaderE @ 33 NONAME
	_ZTIN5zxing4oned12UPCEANReaderE @ 34 NONAME
	_ZTIN5zxing4oned13Code128ReaderE @ 35 NONAME
	_ZTIN5zxing4oned21MultiFormatOneDReaderE @ 36 NONAME
	_ZTIN5zxing4oned23MultiFormatUPCEANReaderE @ 37 NONAME
	_ZTIN5zxing4oned9ITFReaderE @ 38 NONAME
	_ZTIN5zxing6ReaderE @ 39 NONAME
	_ZTIN5zxing6ResultE @ 40 NONAME
	_ZTIN5zxing6qrcode12QRCodeReaderE @ 41 NONAME
	_ZTIN5zxing6qrcode14QREdgeDetectorE @ 42 NONAME
	_ZTIN5zxing6qrcode22AlignmentPatternFinderE @ 43 NONAME
	_ZTIN5zxing6qrcode7VersionE @ 44 NONAME
	_ZTIN5zxing6qrcode8DataMaskE @ 45 NONAME
	_ZTIN5zxing6qrcode8DetectorE @ 46 NONAME
	_ZTIN5zxing8BitArrayE @ 47 NONAME
	_ZTIN5zxing9BinarizerE @ 48 NONAME
	_ZTIN5zxing9BitMatrixE @ 49 NONAME
	_ZTIN5zxing9ExceptionE @ 50 NONAME
	_ZTIN5zxing9GF256PolyE @ 51 NONAME
	_ZTV18CameraImageWrapper @ 52 NONAME
	_ZTV6QZXing @ 53 NONAME
	_ZTVN5zxing11ResultPointE @ 54 NONAME
	_ZTVN5zxing12BinaryBitmapE @ 55 NONAME
	_ZTVN5zxing15FormatExceptionE @ 56 NONAME
	_ZTVN5zxing15HybridBinarizerE @ 57 NONAME
	_ZTVN5zxing15LuminanceSourceE @ 58 NONAME
	_ZTVN5zxing15ReaderExceptionE @ 59 NONAME
	_ZTVN5zxing17MultiFormatReaderE @ 60 NONAME
	_ZTVN5zxing19ResultPointCallbackE @ 61 NONAME
	_ZTVN5zxing20ReedSolomonExceptionE @ 62 NONAME
	_ZTVN5zxing24GlobalHistogramBinarizerE @ 63 NONAME
	_ZTVN5zxing24GreyscaleLuminanceSourceE @ 64 NONAME
	_ZTVN5zxing24IllegalArgumentExceptionE @ 65 NONAME
	_ZTVN5zxing31GreyscaleRotatedLuminanceSourceE @ 66 NONAME
	_ZTVN5zxing4oned10EAN8ReaderE @ 67 NONAME
	_ZTVN5zxing4oned10OneDReaderE @ 68 NONAME
	_ZTVN5zxing4oned10UPCAReaderE @ 69 NONAME
	_ZTVN5zxing4oned10UPCEReaderE @ 70 NONAME
	_ZTVN5zxing4oned11EAN13ReaderE @ 71 NONAME
	_ZTVN5zxing4oned12Code39ReaderE @ 72 NONAME
	_ZTVN5zxing4oned12UPCEANReaderE @ 73 NONAME
	_ZTVN5zxing4oned13Code128ReaderE @ 74 NONAME
	_ZTVN5zxing4oned21MultiFormatOneDReaderE @ 75 NONAME
	_ZTVN5zxing4oned23MultiFormatUPCEANReaderE @ 76 NONAME
	_ZTVN5zxing4oned9ITFReaderE @ 77 NONAME
	_ZTVN5zxing6ReaderE @ 78 NONAME
	_ZTVN5zxing6ResultE @ 79 NONAME
	_ZTVN5zxing6qrcode12QRCodeReaderE @ 80 NONAME
	_ZTVN5zxing6qrcode14QREdgeDetectorE @ 81 NONAME
	_ZTVN5zxing6qrcode22AlignmentPatternFinderE @ 82 NONAME
	_ZTVN5zxing6qrcode7VersionE @ 83 NONAME
	_ZTVN5zxing6qrcode8DataMaskE @ 84 NONAME
	_ZTVN5zxing6qrcode8DetectorE @ 85 NONAME
	_ZTVN5zxing8BitArrayE @ 86 NONAME
	_ZTVN5zxing9BinarizerE @ 87 NONAME
	_ZTVN5zxing9BitMatrixE @ 88 NONAME
	_ZTVN5zxing9ExceptionE @ 89 NONAME
	_ZTVN5zxing9GF256PolyE @ 90 NONAME

